target datalayout = "e-m:e-p270:32:32-p271:32:32-p272:64:64-i64:64-i128:128-f80:128-n8:16:32:64-S128"
target triple = "x86_64-pc-linux-gnu"

%struct._object = type { %union.anon, ptr }
%union.anon = type { i64 }
%struct.anon = type { i32, i32 }
%struct.PyStopIterationObject = type { %struct._object, ptr, ptr, ptr, ptr, ptr, ptr, i8, ptr }

@PyExc_StopIteration = external global ptr, align 8
@_Py_NoneStruct = external global %struct._object, align 8

; Function Attrs: alwaysinline nounwind uwtable
define internal i32 @_Py_IsImmortal(ptr noundef %0) #3 {
  %2 = alloca ptr, align 8
  store ptr %0, ptr %2, align 8, !tbaa !11
  %3 = load ptr, ptr %2, align 8, !tbaa !11
  %4 = getelementptr inbounds nuw %struct._object, ptr %3, i32 0, i32 0
  %5 = getelementptr inbounds nuw %struct.anon, ptr %4, i32 0, i32 0
  %6 = load i32, ptr %5, align 8, !tbaa !13
  %7 = icmp slt i32 %6, 0
  %8 = zext i1 %7 to i32
  ret i32 %8
}

; Function Attrs: alwaysinline nounwind uwtable
define internal void @Py_INCREF(ptr noundef %0) #3 {
  %2 = alloca ptr, align 8
  %3 = alloca i32, align 4
  %4 = alloca i32, align 4
  store ptr %0, ptr %2, align 8, !tbaa !11
  call void @llvm.lifetime.start.p0(i64 4, ptr %3) #7
  %5 = load ptr, ptr %2, align 8, !tbaa !11
  %6 = getelementptr inbounds nuw %struct._object, ptr %5, i32 0, i32 0
  %7 = getelementptr inbounds nuw %struct.anon, ptr %6, i32 0, i32 0
  %8 = load i32, ptr %7, align 8, !tbaa !13
  store i32 %8, ptr %3, align 4, !tbaa !14
  %9 = load i32, ptr %3, align 4, !tbaa !14
  %10 = icmp slt i32 %9, 0
  br i1 %10, label %11, label %12

11:                                               ; preds = %1
  store i32 1, ptr %4, align 4
  br label %18

12:                                               ; preds = %1
  %13 = load i32, ptr %3, align 4, !tbaa !14
  %14 = add i32 %13, 1
  %15 = load ptr, ptr %2, align 8, !tbaa !11
  %16 = getelementptr inbounds nuw %struct._object, ptr %15, i32 0, i32 0
  %17 = getelementptr inbounds nuw %struct.anon, ptr %16, i32 0, i32 0
  store i32 %14, ptr %17, align 8, !tbaa !13
  store i32 0, ptr %4, align 4
  br label %18

18:                                               ; preds = %12, %11
  call void @llvm.lifetime.end.p0(i64 4, ptr %3) #7
  %19 = load i32, ptr %4, align 4
  switch i32 %19, label %21 [
    i32 0, label %20
    i32 1, label %20
  ]

20:                                               ; preds = %18, %18
  ret void

21:                                               ; preds = %18
  unreachable
}

; Function Attrs: alwaysinline nounwind uwtable
define internal void @Py_DECREF(ptr noundef %0) #3 {
  %2 = alloca ptr, align 8
  store ptr %0, ptr %2, align 8, !tbaa !11
  %3 = load ptr, ptr %2, align 8, !tbaa !11
  %4 = call i32 @_Py_IsImmortal(ptr noundef %3)
  %5 = icmp ne i32 %4, 0
  br i1 %5, label %6, label %7

6:                                                ; preds = %1
  br label %16

7:                                                ; preds = %1
  %8 = load ptr, ptr %2, align 8, !tbaa !11
  %9 = getelementptr inbounds nuw %struct._object, ptr %8, i32 0, i32 0
  %10 = getelementptr inbounds nuw %struct.anon, ptr %9, i32 0, i32 0
  %11 = load i32, ptr %10, align 8, !tbaa !13
  %12 = add i32 %11, -1
  store i32 %12, ptr %10, align 8, !tbaa !13
  %13 = icmp eq i32 %12, 0
  br i1 %13, label %14, label %16

14:                                               ; preds = %7
  %15 = load ptr, ptr %2, align 8, !tbaa !11
  call void @_Py_Dealloc(ptr noundef %15)
  br label %16

16:                                               ; preds = %6, %14, %7
  ret void
}

; Function Attrs: inlinehint nounwind uwtable
define internal ptr @_Py_NewRef(ptr noundef %0) #2 {
  %2 = alloca ptr, align 8
  store ptr %0, ptr %2, align 8, !tbaa !11
  %3 = load ptr, ptr %2, align 8, !tbaa !11
  call void @Py_INCREF(ptr noundef %3)
  %4 = load ptr, ptr %2, align 8, !tbaa !11
  ret ptr %4
}

; Function Attrs: nounwind uwtable
define dso_local i32 @_PyGen_FetchStopIterationValue(ptr noundef %0) #0 {
  %2 = alloca i32, align 4
  %3 = alloca ptr, align 8
  %4 = alloca ptr, align 8
  %5 = alloca ptr, align 8
  %6 = alloca i32, align 4
  store ptr %0, ptr %3, align 8, !tbaa !43
  call void @llvm.lifetime.start.p0(i64 8, ptr %4) #7
  store ptr null, ptr %4, align 8, !tbaa !11
  %7 = load ptr, ptr @PyExc_StopIteration, align 8, !tbaa !11
  %8 = call i32 @PyErr_ExceptionMatches(ptr noundef %7)
  %9 = icmp ne i32 %8, 0
  br i1 %9, label %10, label %17

10:                                               ; preds = %1
  call void @llvm.lifetime.start.p0(i64 8, ptr %5) #7
  %11 = call ptr @PyErr_GetRaisedException()
  store ptr %11, ptr %5, align 8, !tbaa !11
  %12 = load ptr, ptr %5, align 8, !tbaa !11
  %13 = getelementptr inbounds nuw %struct.PyStopIterationObject, ptr %12, i32 0, i32 8
  %14 = load ptr, ptr %13, align 8, !tbaa !45
  %15 = call ptr @_Py_NewRef(ptr noundef %14)
  store ptr %15, ptr %4, align 8, !tbaa !11
  %16 = load ptr, ptr %5, align 8, !tbaa !11
  call void @Py_DECREF(ptr noundef %16)
  call void @llvm.lifetime.end.p0(i64 8, ptr %5) #7
  br label %22

17:                                               ; preds = %1
  %18 = call ptr @PyErr_Occurred()
  %19 = icmp ne ptr %18, null
  br i1 %19, label %20, label %21

20:                                               ; preds = %17
  store i32 -1, ptr %2, align 4
  store i32 1, ptr %6, align 4
  br label %30

21:                                               ; preds = %17
  br label %22

22:                                               ; preds = %21, %10
  %23 = load ptr, ptr %4, align 8, !tbaa !11
  %24 = icmp eq ptr %23, null
  br i1 %24, label %25, label %27

25:                                               ; preds = %22
  %26 = call ptr @_Py_NewRef(ptr noundef @_Py_NoneStruct)
  store ptr %26, ptr %4, align 8, !tbaa !11
  br label %27

27:                                               ; preds = %25, %22
  %28 = load ptr, ptr %4, align 8, !tbaa !11
  %29 = load ptr, ptr %3, align 8, !tbaa !43
  store ptr %28, ptr %29, align 8, !tbaa !11
  store i32 0, ptr %2, align 4
  store i32 1, ptr %6, align 4
  br label %30

30:                                               ; preds = %27, %20
  call void @llvm.lifetime.end.p0(i64 8, ptr %4) #7
  %31 = load i32, ptr %2, align 4
  ret i32 %31
}