; Function Attrs: nounwind uwtable
define dso_local range(i32 -1, 1) i32 @_PyGen_FetchStopIterationValue(ptr noundef writeonly captures(none) %0) local_unnamed_addr #2 {
  %2 = load ptr, ptr @PyExc_StopIteration, align 8, !tbaa !32
  %3 = tail call i32 @PyErr_ExceptionMatches(ptr noundef %2) #8
  %.not = icmp eq i32 %3, 0
  br i1 %.not, label %17, label %4

4:                                                ; preds = %1
  %5 = tail call ptr @PyErr_GetRaisedException() #8
  %6 = getelementptr inbounds nuw i8, ptr %5, i64 72
  %7 = load ptr, ptr %6, align 8, !tbaa !33
  %8 = load i32, ptr %7, align 8, !tbaa !4
  %9 = icmp slt i32 %8, 0
  br i1 %9, label %_Py_NewRef.exit, label %10

10:                                               ; preds = %4
  %11 = add nuw i32 %8, 1
  store i32 %11, ptr %7, align 8, !tbaa !4
  br label %_Py_NewRef.exit

_Py_NewRef.exit:                                  ; preds = %4, %10
  %12 = load i32, ptr %5, align 8, !tbaa !4
  %.not.i = icmp sgt i32 %12, -1
  br i1 %.not.i, label %13, label %_Py_NewRef.exit7

13:                                               ; preds = %_Py_NewRef.exit
  %14 = add nsw i32 %12, -1
  store i32 %14, ptr %5, align 8, !tbaa !4
  %15 = icmp eq i32 %14, 0
  br i1 %15, label %16, label %_Py_NewRef.exit7

16:                                               ; preds = %13
  tail call void @_Py_Dealloc(ptr noundef nonnull %5) #8
  br label %_Py_NewRef.exit7

17:                                               ; preds = %1
  %18 = tail call ptr @PyErr_Occurred() #8
  %.not6 = icmp eq ptr %18, null
  br i1 %.not6, label %Py_DECREF.exit, label %23

Py_DECREF.exit:                                   ; preds = %17
  %19 = load i32, ptr @_Py_NoneStruct, align 8, !tbaa !4
  %20 = icmp slt i32 %19, 0
  br i1 %20, label %_Py_NewRef.exit7, label %21

21:                                               ; preds = %Py_DECREF.exit
  %22 = add nuw i32 %19, 1
  store i32 %22, ptr @_Py_NoneStruct, align 8, !tbaa !4
  br label %_Py_NewRef.exit7

_Py_NewRef.exit7:                                 ; preds = %16, %13, %_Py_NewRef.exit, %21, %Py_DECREF.exit
  %.1 = phi ptr [ @_Py_NoneStruct, %Py_DECREF.exit ], [ @_Py_NoneStruct, %21 ], [ %7, %_Py_NewRef.exit ], [ %7, %13 ], [ %7, %16 ]
  store ptr %.1, ptr %0, align 8, !tbaa !32
  br label %23

23:                                               ; preds = %17, %_Py_NewRef.exit7
  %.0 = phi i32 [ 0, %_Py_NewRef.exit7 ], [ -1, %17 ]
  ret i32 %.0
}